target datalayout = "e-m:e-p270:32:32-p271:32:32-p272:64:64-i64:64-i128:128-f80:128-n8:16:32:64-S128"
target triple = "x86_64-pc-linux-gnu"

%struct.expert_field = type { i32, i32 }

@hf_nfapi_epdcch_resource_assignment_flag = internal global i32 0, align 4
@hf_nfapi_epdcch_id = internal global i32 0, align 4
@hf_nfapi_epdcch_start_symbol = internal global i32 0, align 4
@hf_nfapi_epdcch_num_prb = internal global i32 0, align 4
@ett_nfapi_epdcch_prbs = internal global i32 0, align 4
@ei_invalid_range = internal global %struct.expert_field zeroinitializer, align 4
@.str.1839 = private unnamed_addr constant [3 x i8] c"%s\00", align 1
@.str.1840 = private unnamed_addr constant [5 x i8] c"[%d]\00", align 1
@.str.2222 = private unnamed_addr constant [53 x i8] c"Invalid epdcch resource assignment flag value [0..1]\00", align 1
@.str.2223 = private unnamed_addr constant [33 x i8] c"Invalid epdcch id value [0..503]\00", align 1
@.str.2224 = private unnamed_addr constant [41 x i8] c"Invalid epdcch start symbol value [1..4]\00", align 1
@.str.2225 = private unnamed_addr constant [39 x i8] c"Invalid epdcch num prb value [2, 4, 8]\00", align 1
@.str.2226 = private unnamed_addr constant [5 x i8] c"PRBs\00", align 1

; Function Attrs: nounwind uwtable
define internal void @dissect_array_value(ptr noundef %0, ptr noundef %1, ptr noundef %2, i32 noundef %3, i32 noundef %4, ptr noundef %5) #0 {
  %7 = alloca ptr, align 8
  %8 = alloca ptr, align 8
  %9 = alloca ptr, align 8
  %10 = alloca i32, align 4
  %11 = alloca i32, align 4
  %12 = alloca ptr, align 8
  %13 = alloca i16, align 2
  store ptr %0, ptr %7, align 8
  store ptr %1, ptr %8, align 8
  store ptr %2, ptr %9, align 8
  store i32 %3, ptr %10, align 4
  store i32 %4, ptr %11, align 4
  store ptr %5, ptr %12, align 8
  %14 = load i32, ptr %11, align 4
  %15 = icmp ugt i32 %14, 0
  br i1 %15, label %16, label %41

16:                                               ; preds = %6
  %17 = load ptr, ptr %7, align 8
  %18 = load i32, ptr %10, align 4
  %19 = load ptr, ptr %9, align 8
  %20 = call ptr (ptr, i32, i32, ptr, ...) @ptvcursor_add_text_with_subtree(ptr noundef %17, i32 noundef -1, i32 noundef %18, ptr noundef @.str.1839, ptr noundef %19)
  store i16 0, ptr %13, align 2
  br label %21

21:                                               ; preds = %36, %16
  %22 = load i16, ptr %13, align 2
  %23 = zext i16 %22 to i32
  %24 = load i32, ptr %11, align 4
  %25 = icmp ult i32 %23, %24
  br i1 %25, label %26, label %39

26:                                               ; preds = %21
  %27 = load ptr, ptr %7, align 8
  %28 = load i32, ptr %10, align 4
  %29 = load i16, ptr %13, align 2
  %30 = zext i16 %29 to i32
  %31 = call ptr (ptr, i32, i32, ptr, ...) @ptvcursor_add_text_with_subtree(ptr noundef %27, i32 noundef -1, i32 noundef %28, ptr noundef @.str.1840, i32 noundef %30)
  %32 = load ptr, ptr %12, align 8
  %33 = load ptr, ptr %7, align 8
  %34 = load ptr, ptr %8, align 8
  call void %32(ptr noundef %33, ptr noundef %34)
  %35 = load ptr, ptr %7, align 8
  call void @ptvcursor_pop_subtree(ptr noundef %35)
  br label %36

36:                                               ; preds = %26
  %37 = load i16, ptr %13, align 2
  %38 = add i16 %37, 1
  store i16 %38, ptr %13, align 2
  br label %21, !llvm.loop !4

39:                                               ; preds = %21
  %40 = load ptr, ptr %7, align 8
  call void @ptvcursor_pop_subtree(ptr noundef %40)
  br label %41

41:                                               ; preds = %39, %6
  ret void
}

; Function Attrs: nounwind uwtable
define internal void @dissect_dl_config_request_depdcch_params_rel11_value(ptr noundef %0, ptr noundef %1) #0 {
  %3 = alloca ptr, align 8
  %4 = alloca ptr, align 8
  %5 = alloca ptr, align 8
  %6 = alloca i32, align 4
  %7 = alloca i32, align 4
  store ptr %0, ptr %3, align 8
  store ptr %1, ptr %4, align 8
  %8 = load ptr, ptr %3, align 8
  %9 = load i32, ptr @hf_nfapi_epdcch_resource_assignment_flag, align 4
  %10 = call ptr @ptvcursor_add_ret_uint(ptr noundef %8, i32 noundef %9, i32 noundef 1, i32 noundef 0, ptr noundef %6)
  store ptr %10, ptr %5, align 8
  %11 = load i32, ptr %6, align 4
  %12 = icmp ugt i32 %11, 1
  br i1 %12, label %13, label %17

13:                                               ; preds = %2
  %14 = load ptr, ptr %4, align 8
  %15 = load ptr, ptr %5, align 8
  %16 = call ptr (ptr, ptr, ptr, ptr, ...) @expert_add_info_format(ptr noundef %14, ptr noundef %15, ptr noundef @ei_invalid_range, ptr noundef @.str.2222)
  br label %17

17:                                               ; preds = %13, %2
  %18 = load ptr, ptr %3, align 8
  %19 = load i32, ptr @hf_nfapi_epdcch_id, align 4
  %20 = call ptr @ptvcursor_add_ret_uint(ptr noundef %18, i32 noundef %19, i32 noundef 2, i32 noundef 0, ptr noundef %6)
  store ptr %20, ptr %5, align 8
  %21 = load i32, ptr %6, align 4
  %22 = icmp ugt i32 %21, 503
  br i1 %22, label %23, label %27

23:                                               ; preds = %17
  %24 = load ptr, ptr %4, align 8
  %25 = load ptr, ptr %5, align 8
  %26 = call ptr (ptr, ptr, ptr, ptr, ...) @expert_add_info_format(ptr noundef %24, ptr noundef %25, ptr noundef @ei_invalid_range, ptr noundef @.str.2223)
  br label %27

27:                                               ; preds = %23, %17
  %28 = load ptr, ptr %3, align 8
  %29 = load i32, ptr @hf_nfapi_epdcch_start_symbol, align 4
  %30 = call ptr @ptvcursor_add_ret_uint(ptr noundef %28, i32 noundef %29, i32 noundef 1, i32 noundef 0, ptr noundef %6)
  store ptr %30, ptr %5, align 8
  %31 = load i32, ptr %6, align 4
  %32 = icmp uge i32 %31, 1
  br i1 %32, label %33, label %36

33:                                               ; preds = %27
  %34 = load i32, ptr %6, align 4
  %35 = icmp ule i32 %34, 4
  br i1 %35, label %40, label %36

36:                                               ; preds = %33, %27
  %37 = load ptr, ptr %4, align 8
  %38 = load ptr, ptr %5, align 8
  %39 = call ptr (ptr, ptr, ptr, ptr, ...) @expert_add_info_format(ptr noundef %37, ptr noundef %38, ptr noundef @ei_invalid_range, ptr noundef @.str.2224)
  br label %40

40:                                               ; preds = %36, %33
  %41 = load ptr, ptr %3, align 8
  %42 = load i32, ptr @hf_nfapi_epdcch_num_prb, align 4
  %43 = call ptr @ptvcursor_add_ret_uint(ptr noundef %41, i32 noundef %42, i32 noundef 1, i32 noundef 0, ptr noundef %7)
  store ptr %43, ptr %5, align 8
  %44 = load i32, ptr %7, align 4
  %45 = icmp eq i32 %44, 2
  br i1 %45, label %56, label %46

46:                                               ; preds = %40
  %47 = load i32, ptr %7, align 4
  %48 = icmp eq i32 %47, 4
  br i1 %48, label %56, label %49

49:                                               ; preds = %46
  %50 = load i32, ptr %7, align 4
  %51 = icmp eq i32 %50, 8
  br i1 %51, label %56, label %52

52:                                               ; preds = %49
  %53 = load ptr, ptr %4, align 8
  %54 = load ptr, ptr %5, align 8
  %55 = call ptr (ptr, ptr, ptr, ptr, ...) @expert_add_info_format(ptr noundef %53, ptr noundef %54, ptr noundef @ei_invalid_range, ptr noundef @.str.2225)
  br label %56

56:                                               ; preds = %52, %49, %46, %40
  %57 = load ptr, ptr %3, align 8
  %58 = load ptr, ptr %4, align 8
  %59 = load i32, ptr @ett_nfapi_epdcch_prbs, align 4
  %60 = load i32, ptr %7, align 4
  call void @dissect_array_value(ptr noundef %57, ptr noundef %58, ptr noundef @.str.2226, i32 noundef %59, i32 noundef %60, ptr noundef @dissect_epdcch_prb_index_value)
  %61 = load ptr, ptr %3, align 8
  %62 = load ptr, ptr %4, align 8
  call void @dissect_bf_vector_type_value(ptr noundef %61, ptr noundef %62)
  ret void
}