; Function Attrs: nounwind uwtable
define internal void @dissect_dl_config_request_depdcch_params_rel11_value(ptr noundef %0, ptr noundef %1) #0 {
  %3 = alloca i32, align 4
  %4 = alloca i32, align 4
  %5 = alloca i32, align 4
  %6 = load i32, ptr @hf_nfapi_epdcch_resource_assignment_flag, align 4
  %7 = call ptr @ptvcursor_add_ret_uint(ptr noundef %0, i32 noundef %6, i32 noundef 1, i32 noundef 0, ptr noundef nonnull %4) #7
  %8 = load i32, ptr %4, align 4
  %9 = icmp ugt i32 %8, 1
  br i1 %9, label %10, label %12

10:                                               ; preds = %2
  %11 = call ptr (ptr, ptr, ptr, ptr, ...) @expert_add_info_format(ptr noundef %1, ptr noundef %7, ptr noundef nonnull @ei_invalid_range, ptr noundef nonnull @.str.2222) #7
  br label %12

12:                                               ; preds = %10, %2
  %13 = load i32, ptr @hf_nfapi_epdcch_id, align 4
  %14 = call ptr @ptvcursor_add_ret_uint(ptr noundef %0, i32 noundef %13, i32 noundef 2, i32 noundef 0, ptr noundef nonnull %4) #7
  %15 = load i32, ptr %4, align 4
  %16 = icmp ugt i32 %15, 503
  br i1 %16, label %17, label %19

17:                                               ; preds = %12
  %18 = call ptr (ptr, ptr, ptr, ptr, ...) @expert_add_info_format(ptr noundef %1, ptr noundef %14, ptr noundef nonnull @ei_invalid_range, ptr noundef nonnull @.str.2223) #7
  br label %19

19:                                               ; preds = %17, %12
  %20 = load i32, ptr @hf_nfapi_epdcch_start_symbol, align 4
  %21 = call ptr @ptvcursor_add_ret_uint(ptr noundef %0, i32 noundef %20, i32 noundef 1, i32 noundef 0, ptr noundef nonnull %4) #7
  %22 = load i32, ptr %4, align 4
  %23 = add i32 %22, -1
  %or.cond = icmp ult i32 %23, 4
  br i1 %or.cond, label %26, label %24

24:                                               ; preds = %19
  %25 = call ptr (ptr, ptr, ptr, ptr, ...) @expert_add_info_format(ptr noundef %1, ptr noundef %21, ptr noundef nonnull @ei_invalid_range, ptr noundef nonnull @.str.2224) #7
  br label %26

26:                                               ; preds = %19, %24
  %27 = load i32, ptr @hf_nfapi_epdcch_num_prb, align 4
  %28 = call ptr @ptvcursor_add_ret_uint(ptr noundef %0, i32 noundef %27, i32 noundef 1, i32 noundef 0, ptr noundef nonnull %5) #7
  %29 = load i32, ptr %5, align 4
  switch i32 %29, label %30 [
    i32 8, label %.thread
    i32 4, label %.thread
    i32 2, label %.thread
  ]

30:                                               ; preds = %26
  %31 = call ptr (ptr, ptr, ptr, ptr, ...) @expert_add_info_format(ptr noundef %1, ptr noundef %28, ptr noundef nonnull @ei_invalid_range, ptr noundef nonnull @.str.2225) #7
  %.pr = load i32, ptr %5, align 4
  %.not.i = icmp eq i32 %.pr, 0
  br i1 %.not.i, label %dissect_array_value.exit, label %.thread

.thread:                                          ; preds = %26, %26, %26, %30
  %32 = phi i32 [ %.pr, %30 ], [ %29, %26 ], [ %29, %26 ], [ %29, %26 ]
  %33 = load i32, ptr @ett_nfapi_epdcch_prbs, align 4
  %34 = call ptr (ptr, i32, i32, ptr, ...) @ptvcursor_add_text_with_subtree(ptr noundef %0, i32 noundef -1, i32 noundef %33, ptr noundef nonnull @.str.1839, ptr noundef nonnull @.str.2226) #7
  br label %35

35:                                               ; preds = %dissect_epdcch_prb_index_value.exit, %.thread
  %36 = phi i32 [ 0, %.thread ], [ %45, %dissect_epdcch_prb_index_value.exit ]
  %.016.i = phi i16 [ 0, %.thread ], [ %44, %dissect_epdcch_prb_index_value.exit ]
  %37 = call ptr (ptr, i32, i32, ptr, ...) @ptvcursor_add_text_with_subtree(ptr noundef %0, i32 noundef -1, i32 noundef %33, ptr noundef nonnull @.str.1840, i32 noundef %36) #7
  call void @llvm.lifetime.start.p0(i64 4, ptr nonnull %3)
  %38 = load i32, ptr @hf_nfapi_epdcch_prb_index, align 4
  %39 = call ptr @ptvcursor_add_ret_uint(ptr noundef %0, i32 noundef %38, i32 noundef 1, i32 noundef 0, ptr noundef nonnull %3) #7
  %40 = load i32, ptr %3, align 4
  %41 = icmp ugt i32 %40, 99
  br i1 %41, label %42, label %dissect_epdcch_prb_index_value.exit

42:                                               ; preds = %35
  %43 = call ptr (ptr, ptr, ptr, ptr, ...) @expert_add_info_format(ptr noundef %1, ptr noundef %39, ptr noundef nonnull @ei_invalid_range, ptr noundef nonnull @.str.2227) #7
  br label %dissect_epdcch_prb_index_value.exit

dissect_epdcch_prb_index_value.exit:              ; preds = %35, %42
  call void @llvm.lifetime.end.p0(i64 4, ptr nonnull %3)
  call void @ptvcursor_pop_subtree(ptr noundef %0) #7
  %44 = add i16 %.016.i, 1
  %45 = zext i16 %44 to i32
  %46 = icmp ugt i32 %32, %45
  br i1 %46, label %35, label %47, !llvm.loop !4

47:                                               ; preds = %dissect_epdcch_prb_index_value.exit
  call void @ptvcursor_pop_subtree(ptr noundef %0) #7
  br label %dissect_array_value.exit

dissect_array_value.exit:                         ; preds = %30, %47
  call fastcc void @dissect_bf_vector_type_value(ptr noundef %0)
  ret void
}